; Function Attrs: mustprogress uwtable
define internal void @_ZN4LuauL8fnVisitVIZNS_15TypeStringifier9stringifyEPKNS_4TypeEEUlOT_E_KNS_12NoRefineTypeEEEvRS5_PNSt11conditionalIXsr3stdE10is_const_vIT0_EEKvvE4typeE(ptr noundef nonnull readonly align 8 captures(none) dereferenceable(16) %0, ptr readnone captures(none) %1) #6 personality ptr @__gxx_personality_v0 {
  %3 = load ptr, ptr %0, align 8, !tbaa !238
  %4 = load ptr, ptr %3, align 8, !tbaa !28
  %5 = load ptr, ptr %4, align 8, !tbaa !39
  %6 = getelementptr inbounds nuw i8, ptr %5, i64 16
  %7 = load i64, ptr %6, align 8, !tbaa !64
  %.not.i.i.i = icmp ne i64 %7, 0
  %.phi.trans.insert.i.i.i = getelementptr inbounds nuw i8, ptr %4, i64 8
  %.pre.i.i.i = load ptr, ptr %.phi.trans.insert.i.i.i, align 8, !tbaa !86
  %.phi.trans.insert2.i.i.i = getelementptr inbounds nuw i8, ptr %.pre.i.i.i, i64 8
  %.pre3.i.i.i = load i64, ptr %.phi.trans.insert2.i.i.i, align 8, !tbaa !23
  %8 = icmp ugt i64 %.pre3.i.i.i, %7
  %or.cond.i.i.i = select i1 %.not.i.i.i, i1 %8, i1 false
  br i1 %or.cond.i.i.i, label %_ZZN4Luau15TypeStringifier9stringifyEPKNS_4TypeEENKUlOT_E_clIRKNS_12NoRefineTypeEEEDaS5_.exit, label %._crit_edge.i.i.i

._crit_edge.i.i.i:                                ; preds = %2
  %9 = add i64 %.pre3.i.i.i, -4611686018427387893
  %10 = icmp ult i64 %9, 11
  br i1 %10, label %11, label %_ZNSt7__cxx1112basic_stringIcSt11char_traitsIcESaIcEEpLEPKc.exit.i.i.i

11:                                               ; preds = %._crit_edge.i.i.i
  tail call void @_ZSt20__throw_length_errorPKc(ptr noundef nonnull @.str.183) #31
  unreachable

_ZNSt7__cxx1112basic_stringIcSt11char_traitsIcESaIcEEpLEPKc.exit.i.i.i: ; preds = %._crit_edge.i.i.i
  %12 = tail call noundef nonnull align 8 dereferenceable(32) ptr @_ZNSt7__cxx1112basic_stringIcSt11char_traitsIcESaIcEE9_M_appendEPKcm(ptr noundef nonnull align 8 dereferenceable(32) %.pre.i.i.i, ptr noundef nonnull @.str.155, i64 noundef 11)
  br label %_ZZN4Luau15TypeStringifier9stringifyEPKNS_4TypeEENKUlOT_E_clIRKNS_12NoRefineTypeEEEDaS5_.exit

_ZZN4Luau15TypeStringifier9stringifyEPKNS_4TypeEENKUlOT_E_clIRKNS_12NoRefineTypeEEEDaS5_.exit: ; preds = %2, %_ZNSt7__cxx1112basic_stringIcSt11char_traitsIcESaIcEEpLEPKc.exit.i.i.i
  ret void
}